; Function Attrs: mustprogress uwtable
define void @_ZN5Ipopt10Journalist14AddFileJournalERKNSt7__cxx1112basic_stringIcSt11char_traitsIcESaIcEEES8_NS_13EJournalLevelEb(ptr dead_on_unwind noalias nocapture writable writeonly sret(%"class.Ipopt::SmartPtr") align 8 %0, ptr noundef nonnull align 8 dereferenceable(40) %1, ptr noundef nonnull align 8 dereferenceable(32) %2, ptr noundef nonnull align 8 dereferenceable(32) %3, i32 noundef %4, i1 noundef zeroext %5) unnamed_addr #3 align 2 personality ptr @__gxx_personality_v0 {
  %7 = alloca %"class.Ipopt::SmartPtr", align 8
  %8 = tail call noalias noundef nonnull dereferenceable(184) ptr @_Znwm(i64 noundef 184) #22
  invoke void @_ZN5Ipopt11FileJournalC1ERKNSt7__cxx1112basic_stringIcSt11char_traitsIcESaIcEEENS_13EJournalLevelE(ptr noundef nonnull align 8 dereferenceable(184) %8, ptr noundef nonnull align 8 dereferenceable(32) %2, i32 noundef %4)
          to label %_ZN5Ipopt8SmartPtrINS_11FileJournalEEC2EPS1_.exit unwind label %38

_ZN5Ipopt8SmartPtrINS_11FileJournalEEC2EPS1_.exit: ; preds = %6
  %9 = getelementptr inbounds i8, ptr %8, i64 8
  %10 = load i32, ptr %9, align 8
  %11 = add nsw i32 %10, 1
  store i32 %11, ptr %9, align 8
  %12 = tail call noundef ptr @_ZNKSt7__cxx1112basic_stringIcSt11char_traitsIcESaIcEE5c_strEv(ptr noundef nonnull align 8 dereferenceable(32) %3) #20
  %13 = load ptr, ptr %8, align 8
  %14 = getelementptr inbounds i8, ptr %13, i64 96
  %15 = load ptr, ptr %14, align 8
  %16 = invoke noundef zeroext i1 %15(ptr noundef nonnull align 8 dereferenceable(184) %8, ptr noundef %12, i1 noundef zeroext %5)
          to label %17 unwind label %40

17:                                               ; preds = %_ZN5Ipopt8SmartPtrINS_11FileJournalEEC2EPS1_.exit
  br i1 %16, label %18, label %_ZN5Ipopt8SmartPtrINS_7JournalEED2Ev.exit.thread

18:                                               ; preds = %17
  %19 = load i32, ptr %9, align 8
  %20 = add nsw i32 %19, 1
  store i32 %20, ptr %9, align 8
  store ptr %8, ptr %7, align 8
  %21 = load ptr, ptr %1, align 8
  %22 = getelementptr inbounds i8, ptr %21, i64 72
  %23 = load ptr, ptr %22, align 8
  %24 = invoke noundef zeroext i1 %23(ptr noundef nonnull align 8 dereferenceable(40) %1, ptr noundef nonnull %7)
          to label %25 unwind label %42

25:                                               ; preds = %18
  %26 = load ptr, ptr %7, align 8
  %.not.i.i15 = icmp eq ptr %26, null
  br i1 %.not.i.i15, label %_ZN5Ipopt8SmartPtrINS_7JournalEED2Ev.exit, label %27

27:                                               ; preds = %25
  %28 = getelementptr inbounds i8, ptr %26, i64 8
  %29 = load i32, ptr %28, align 8
  %30 = add nsw i32 %29, -1
  store i32 %30, ptr %28, align 8
  %31 = icmp eq i32 %30, 0
  br i1 %31, label %32, label %_ZN5Ipopt8SmartPtrINS_7JournalEED2Ev.exit

32:                                               ; preds = %27
  %33 = load ptr, ptr %26, align 8
  %34 = getelementptr inbounds i8, ptr %33, i64 8
  %35 = load ptr, ptr %34, align 8
  call void %35(ptr noundef nonnull align 8 dereferenceable(176) %26) #20
  br i1 %24, label %_ZN5Ipopt8SmartPtrINS_7JournalEEC2EPS1_.exit19, label %_ZN5Ipopt8SmartPtrINS_7JournalEED2Ev.exit.thread

_ZN5Ipopt8SmartPtrINS_7JournalEED2Ev.exit:        ; preds = %27, %25
  br i1 %24, label %_ZN5Ipopt8SmartPtrINS_7JournalEEC2EPS1_.exit19, label %_ZN5Ipopt8SmartPtrINS_7JournalEED2Ev.exit.thread

_ZN5Ipopt8SmartPtrINS_7JournalEEC2EPS1_.exit19:   ; preds = %32, %_ZN5Ipopt8SmartPtrINS_7JournalEED2Ev.exit
  %36 = load i32, ptr %9, align 8
  %37 = add nsw i32 %36, 1
  store i32 %37, ptr %9, align 8
  br label %_ZN5Ipopt8SmartPtrINS_7JournalEED2Ev.exit.thread

38:                                               ; preds = %6
  %39 = landingpad { ptr, i32 }
          cleanup
  tail call void @_ZdlPv(ptr noundef nonnull %8) #21
  br label %_ZN5Ipopt8SmartPtrINS_11FileJournalEED2Ev.exit24

40:                                               ; preds = %_ZN5Ipopt8SmartPtrINS_11FileJournalEEC2EPS1_.exit
  %41 = landingpad { ptr, i32 }
          cleanup
  br label %_ZN5Ipopt8SmartPtrINS_7JournalEED2Ev.exit21

42:                                               ; preds = %18
  %43 = landingpad { ptr, i32 }
          cleanup
  %44 = load ptr, ptr %7, align 8
  %.not.i.i20 = icmp eq ptr %44, null
  br i1 %.not.i.i20, label %_ZN5Ipopt8SmartPtrINS_7JournalEED2Ev.exit21, label %45

45:                                               ; preds = %42
  %46 = getelementptr inbounds i8, ptr %44, i64 8
  %47 = load i32, ptr %46, align 8
  %48 = add nsw i32 %47, -1
  store i32 %48, ptr %46, align 8
  %49 = icmp eq i32 %48, 0
  br i1 %49, label %50, label %_ZN5Ipopt8SmartPtrINS_7JournalEED2Ev.exit21

50:                                               ; preds = %45
  %51 = load ptr, ptr %44, align 8
  %52 = getelementptr inbounds i8, ptr %51, i64 8
  %53 = load ptr, ptr %52, align 8
  call void %53(ptr noundef nonnull align 8 dereferenceable(176) %44) #20
  br label %_ZN5Ipopt8SmartPtrINS_7JournalEED2Ev.exit21

_ZN5Ipopt8SmartPtrINS_7JournalEED2Ev.exit.thread: ; preds = %_ZN5Ipopt8SmartPtrINS_7JournalEED2Ev.exit, %32, %17, %_ZN5Ipopt8SmartPtrINS_7JournalEEC2EPS1_.exit19
  %storemerge = phi ptr [ %8, %_ZN5Ipopt8SmartPtrINS_7JournalEEC2EPS1_.exit19 ], [ null, %17 ], [ null, %32 ], [ null, %_ZN5Ipopt8SmartPtrINS_7JournalEED2Ev.exit ]
  store ptr %storemerge, ptr %0, align 8
  %54 = load i32, ptr %9, align 8
  %55 = add nsw i32 %54, -1
  store i32 %55, ptr %9, align 8
  %56 = icmp eq i32 %55, 0
  br i1 %56, label %57, label %_ZN5Ipopt8SmartPtrINS_11FileJournalEED2Ev.exit

57:                                               ; preds = %_ZN5Ipopt8SmartPtrINS_7JournalEED2Ev.exit.thread
  %58 = load ptr, ptr %8, align 8
  %59 = getelementptr inbounds i8, ptr %58, i64 8
  %60 = load ptr, ptr %59, align 8
  call void %60(ptr noundef nonnull align 8 dereferenceable(184) %8) #20
  br label %_ZN5Ipopt8SmartPtrINS_11FileJournalEED2Ev.exit

_ZN5Ipopt8SmartPtrINS_11FileJournalEED2Ev.exit:   ; preds = %_ZN5Ipopt8SmartPtrINS_7JournalEED2Ev.exit.thread, %57
  ret void

_ZN5Ipopt8SmartPtrINS_7JournalEED2Ev.exit21:      ; preds = %40, %42, %45, %50
  %.pn = phi { ptr, i32 } [ %41, %40 ], [ %43, %42 ], [ %43, %45 ], [ %43, %50 ]
  %61 = load i32, ptr %9, align 8
  %62 = add nsw i32 %61, -1
  store i32 %62, ptr %9, align 8
  %63 = icmp eq i32 %62, 0
  br i1 %63, label %64, label %_ZN5Ipopt8SmartPtrINS_11FileJournalEED2Ev.exit24

64:                                               ; preds = %_ZN5Ipopt8SmartPtrINS_7JournalEED2Ev.exit21
  %65 = load ptr, ptr %8, align 8
  %66 = getelementptr inbounds i8, ptr %65, i64 8
  %67 = load ptr, ptr %66, align 8
  call void %67(ptr noundef nonnull align 8 dereferenceable(184) %8) #20
  br label %_ZN5Ipopt8SmartPtrINS_11FileJournalEED2Ev.exit24

_ZN5Ipopt8SmartPtrINS_11FileJournalEED2Ev.exit24: ; preds = %64, %_ZN5Ipopt8SmartPtrINS_7JournalEED2Ev.exit21, %38
  %.pn.pn = phi { ptr, i32 } [ %39, %38 ], [ %.pn, %_ZN5Ipopt8SmartPtrINS_7JournalEED2Ev.exit21 ], [ %.pn, %64 ]
  resume { ptr, i32 } %.pn.pn
}